target datalayout = "e-m:e-p270:32:32-p271:32:32-p272:64:64-i64:64-i128:128-f80:128-n8:16:32:64-S128"
target triple = "x86_64-pc-linux-gnu"

%"struct.duckdb_zstd::ZDICT_cover_params_t" = type { i32, i32, i32, i32, double, i32, i32, %"struct.duckdb_zstd::ZDICT_params_t" }
%"struct.duckdb_zstd::ZDICT_params_t" = type { i32, i32, i32 }
%"struct.duckdb_zstd::COVER_dictSelection" = type { ptr, i64, i64 }

; Function Attrs: mustprogress nounwind uwtable
define internal void @_ZN11duckdb_zstdL16setDictSelectionEPhmm(ptr dead_on_unwind noalias writable sret(%"struct.duckdb_zstd::COVER_dictSelection") align 8 %0, ptr noundef %1, i64 noundef %2, i64 noundef %3) #0 {
  %5 = alloca ptr, align 8
  %6 = alloca i64, align 8
  %7 = alloca i64, align 8
  store ptr %1, ptr %5, align 8, !tbaa !22
  store i64 %2, ptr %6, align 8, !tbaa !10
  store i64 %3, ptr %7, align 8, !tbaa !10
  %8 = load ptr, ptr %5, align 8, !tbaa !22
  %9 = getelementptr inbounds nuw %"struct.duckdb_zstd::COVER_dictSelection", ptr %0, i32 0, i32 0
  store ptr %8, ptr %9, align 8, !tbaa !76
  %10 = load i64, ptr %6, align 8, !tbaa !10
  %11 = getelementptr inbounds nuw %"struct.duckdb_zstd::COVER_dictSelection", ptr %0, i32 0, i32 1
  store i64 %10, ptr %11, align 8, !tbaa !79
  %12 = load i64, ptr %7, align 8, !tbaa !10
  %13 = getelementptr inbounds nuw %"struct.duckdb_zstd::COVER_dictSelection", ptr %0, i32 0, i32 2
  store i64 %12, ptr %13, align 8, !tbaa !78
  ret void
}

; Function Attrs: mustprogress nounwind uwtable
define internal noundef i32 @_ZN11duckdb_zstdL11ERR_isErrorEm(i64 noundef %0) #0 {
  %2 = alloca i64, align 8
  store i64 %0, ptr %2, align 8, !tbaa !10
  %3 = load i64, ptr %2, align 8, !tbaa !10
  %4 = icmp ugt i64 %3, -120
  %5 = zext i1 %4 to i32
  ret i32 %5
}

; Function Attrs: mustprogress uwtable
define void @_ZN11duckdb_zstd24COVER_dictSelectionErrorEm(ptr dead_on_unwind noalias writable sret(%"struct.duckdb_zstd::COVER_dictSelection") align 8 %0, i64 noundef %1) #2 {
  %3 = alloca i64, align 8
  store i64 %1, ptr %3, align 8, !tbaa !10
  %4 = load i64, ptr %3, align 8, !tbaa !10
  call void @_ZN11duckdb_zstdL16setDictSelectionEPhmm(ptr dead_on_unwind writable sret(%"struct.duckdb_zstd::COVER_dictSelection") align 8 %0, ptr noundef null, i64 noundef 0, i64 noundef %4)
  ret void
}

; Function Attrs: mustprogress uwtable
define void @_ZN11duckdb_zstd16COVER_selectDictEPhmmPKhPKmjmmNS_20ZDICT_cover_params_tEPmm(ptr dead_on_unwind noalias writable sret(%"struct.duckdb_zstd::COVER_dictSelection") align 8 %0, ptr noundef %1, i64 noundef %2, i64 noundef %3, ptr noundef %4, ptr noundef %5, i32 noundef %6, i64 noundef %7, i64 noundef %8, ptr noundef byval(%"struct.duckdb_zstd::ZDICT_cover_params_t") align 8 %9, ptr noundef %10, i64 noundef %11) #2 {
  %13 = alloca ptr, align 8
  %14 = alloca i64, align 8
  %15 = alloca i64, align 8
  %16 = alloca ptr, align 8
  %17 = alloca ptr, align 8
  %18 = alloca i32, align 4
  %19 = alloca i64, align 8
  %20 = alloca i64, align 8
  %21 = alloca ptr, align 8
  %22 = alloca i64, align 8
  %23 = alloca i64, align 8
  %24 = alloca i64, align 8
  %25 = alloca ptr, align 8
  %26 = alloca ptr, align 8
  %27 = alloca ptr, align 8
  %28 = alloca double, align 8
  %29 = alloca i32, align 4
  %30 = alloca %"struct.duckdb_zstd::ZDICT_params_t", align 8
  %31 = alloca %"struct.duckdb_zstd::ZDICT_cover_params_t", align 8
  %32 = alloca %"struct.duckdb_zstd::ZDICT_params_t", align 8
  %33 = alloca %"struct.duckdb_zstd::ZDICT_cover_params_t", align 8
  store ptr %1, ptr %13, align 8, !tbaa !22
  store i64 %2, ptr %14, align 8, !tbaa !10
  store i64 %3, ptr %15, align 8, !tbaa !10
  store ptr %4, ptr %16, align 8, !tbaa !22
  store ptr %5, ptr %17, align 8, !tbaa !3
  store i32 %6, ptr %18, align 4, !tbaa !8
  store i64 %7, ptr %19, align 8, !tbaa !10
  store i64 %8, ptr %20, align 8, !tbaa !10
  store ptr %10, ptr %21, align 8, !tbaa !3
  store i64 %11, ptr %22, align 8, !tbaa !10
  call void @llvm.lifetime.start.p0(i64 8, ptr %23) #12
  store i64 0, ptr %23, align 8, !tbaa !10
  call void @llvm.lifetime.start.p0(i64 8, ptr %24) #12
  store i64 0, ptr %24, align 8, !tbaa !10
  call void @llvm.lifetime.start.p0(i64 8, ptr %25) #12
  %34 = load ptr, ptr %13, align 8, !tbaa !22
  %35 = load i64, ptr %15, align 8, !tbaa !10
  %36 = getelementptr inbounds nuw i8, ptr %34, i64 %35
  store ptr %36, ptr %25, align 8, !tbaa !22
  call void @llvm.lifetime.start.p0(i64 8, ptr %26) #12
  %37 = load i64, ptr %14, align 8, !tbaa !10
  %38 = call noalias ptr @malloc(i64 noundef %37) #13
  store ptr %38, ptr %26, align 8, !tbaa !22
  call void @llvm.lifetime.start.p0(i64 8, ptr %27) #12
  %39 = load i64, ptr %14, align 8, !tbaa !10
  %40 = call noalias ptr @malloc(i64 noundef %39) #13
  store ptr %40, ptr %27, align 8, !tbaa !22
  call void @llvm.lifetime.start.p0(i64 8, ptr %28) #12
  %41 = getelementptr inbounds nuw %"struct.duckdb_zstd::ZDICT_cover_params_t", ptr %9, i32 0, i32 6
  %42 = load i32, ptr %41, align 4, !tbaa !80
  %43 = uitofp i32 %42 to double
  %44 = fdiv double %43, 1.000000e+02
  %45 = fadd double %44, 1.000000e+00
  store double %45, ptr %28, align 8, !tbaa !14
  %46 = load ptr, ptr %26, align 8, !tbaa !22
  %47 = icmp ne ptr %46, null
  br i1 %47, label %48, label %51

48:                                               ; preds = %12
  %49 = load ptr, ptr %27, align 8, !tbaa !22
  %50 = icmp ne ptr %49, null
  br i1 %50, label %55, label %51

51:                                               ; preds = %48, %12
  %52 = load ptr, ptr %26, align 8, !tbaa !22
  call void @free(ptr noundef %52) #12
  %53 = load ptr, ptr %27, align 8, !tbaa !22
  call void @free(ptr noundef %53) #12
  %54 = load i64, ptr %15, align 8, !tbaa !10
  call void @_ZN11duckdb_zstd24COVER_dictSelectionErrorEm(ptr dead_on_unwind writable sret(%"struct.duckdb_zstd::COVER_dictSelection") align 8 %0, i64 noundef %54)
  store i32 1, ptr %29, align 4
  br label %169

55:                                               ; preds = %48
  %56 = load ptr, ptr %26, align 8, !tbaa !22
  %57 = load ptr, ptr %13, align 8, !tbaa !22
  %58 = load i64, ptr %15, align 8, !tbaa !10
  call void @llvm.memcpy.p0.p0.i64(ptr align 1 %56, ptr align 1 %57, i64 %58, i1 false)
  %59 = load ptr, ptr %26, align 8, !tbaa !22
  %60 = load i64, ptr %14, align 8, !tbaa !10
  %61 = load ptr, ptr %13, align 8, !tbaa !22
  %62 = load i64, ptr %15, align 8, !tbaa !10
  %63 = load ptr, ptr %16, align 8, !tbaa !22
  %64 = load ptr, ptr %17, align 8, !tbaa !3
  %65 = load i32, ptr %18, align 4, !tbaa !8
  %66 = getelementptr inbounds nuw %"struct.duckdb_zstd::ZDICT_cover_params_t", ptr %9, i32 0, i32 7
  call void @llvm.memcpy.p0.p0.i64(ptr align 4 %30, ptr align 8 %66, i64 12, i1 false), !tbaa.struct !35
  %67 = call noundef i64 @_ZN11duckdb_zstd24ZDICT_finalizeDictionaryEPvmPKvmS2_PKmjNS_14ZDICT_params_tE(ptr noundef %59, i64 noundef %60, ptr noundef %61, i64 noundef %62, ptr noundef %63, ptr noundef %64, i32 noundef %65, ptr noundef byval(%"struct.duckdb_zstd::ZDICT_params_t") align 8 %30)
  store i64 %67, ptr %15, align 8, !tbaa !10
  %68 = load i64, ptr %15, align 8, !tbaa !10
  %69 = call noundef i32 @_ZN11duckdb_zstd13ZDICT_isErrorEm(i64 noundef %68)
  %70 = icmp ne i32 %69, 0
  br i1 %70, label %71, label %75

71:                                               ; preds = %55
  %72 = load ptr, ptr %26, align 8, !tbaa !22
  call void @free(ptr noundef %72) #12
  %73 = load ptr, ptr %27, align 8, !tbaa !22
  call void @free(ptr noundef %73) #12
  %74 = load i64, ptr %15, align 8, !tbaa !10
  call void @_ZN11duckdb_zstd24COVER_dictSelectionErrorEm(ptr dead_on_unwind writable sret(%"struct.duckdb_zstd::COVER_dictSelection") align 8 %0, i64 noundef %74)
  store i32 1, ptr %29, align 4
  br label %169

75:                                               ; preds = %55
  call void @llvm.memcpy.p0.p0.i64(ptr align 8 %31, ptr align 8 %9, i64 48, i1 false), !tbaa.struct !28
  %76 = load ptr, ptr %17, align 8, !tbaa !3
  %77 = load ptr, ptr %16, align 8, !tbaa !22
  %78 = load ptr, ptr %21, align 8, !tbaa !3
  %79 = load i64, ptr %19, align 8, !tbaa !10
  %80 = load i64, ptr %20, align 8, !tbaa !10
  %81 = load ptr, ptr %26, align 8, !tbaa !22
  %82 = load i64, ptr %15, align 8, !tbaa !10
  %83 = call noundef i64 @_ZN11duckdb_zstd30COVER_checkTotalCompressedSizeENS_20ZDICT_cover_params_tEPKmPKhPmmmPhm(ptr noundef byval(%"struct.duckdb_zstd::ZDICT_cover_params_t") align 8 %31, ptr noundef %76, ptr noundef %77, ptr noundef %78, i64 noundef %79, i64 noundef %80, ptr noundef %81, i64 noundef %82)
  store i64 %83, ptr %22, align 8, !tbaa !10
  %84 = load i64, ptr %22, align 8, !tbaa !10
  %85 = call noundef i32 @_ZN11duckdb_zstdL11ERR_isErrorEm(i64 noundef %84)
  %86 = icmp ne i32 %85, 0
  br i1 %86, label %87, label %91

87:                                               ; preds = %75
  %88 = load ptr, ptr %26, align 8, !tbaa !22
  call void @free(ptr noundef %88) #12
  %89 = load ptr, ptr %27, align 8, !tbaa !22
  call void @free(ptr noundef %89) #12
  %90 = load i64, ptr %22, align 8, !tbaa !10
  call void @_ZN11duckdb_zstd24COVER_dictSelectionErrorEm(ptr dead_on_unwind writable sret(%"struct.duckdb_zstd::COVER_dictSelection") align 8 %0, i64 noundef %90)
  store i32 1, ptr %29, align 4
  br label %169

91:                                               ; preds = %75
  %92 = getelementptr inbounds nuw %"struct.duckdb_zstd::ZDICT_cover_params_t", ptr %9, i32 0, i32 5
  %93 = load i32, ptr %92, align 8, !tbaa !81
  %94 = icmp eq i32 %93, 0
  br i1 %94, label %95, label %100

95:                                               ; preds = %91
  %96 = load ptr, ptr %27, align 8, !tbaa !22
  call void @free(ptr noundef %96) #12
  %97 = load ptr, ptr %26, align 8, !tbaa !22
  %98 = load i64, ptr %15, align 8, !tbaa !10
  %99 = load i64, ptr %22, align 8, !tbaa !10
  call void @_ZN11duckdb_zstdL16setDictSelectionEPhmm(ptr dead_on_unwind writable sret(%"struct.duckdb_zstd::COVER_dictSelection") align 8 %0, ptr noundef %97, i64 noundef %98, i64 noundef %99)
  store i32 1, ptr %29, align 4
  br label %169

100:                                              ; preds = %91
  %101 = load i64, ptr %15, align 8, !tbaa !10
  store i64 %101, ptr %23, align 8, !tbaa !10
  %102 = load i64, ptr %22, align 8, !tbaa !10
  store i64 %102, ptr %24, align 8, !tbaa !10
  store i64 256, ptr %15, align 8, !tbaa !10
  br label %103

103:                                              ; preds = %159, %100
  %104 = load i64, ptr %15, align 8, !tbaa !10
  %105 = load i64, ptr %23, align 8, !tbaa !10
  %106 = icmp ult i64 %104, %105
  br i1 %106, label %107, label %162

107:                                              ; preds = %103
  %108 = load ptr, ptr %27, align 8, !tbaa !22
  %109 = load ptr, ptr %26, align 8, !tbaa !22
  %110 = load i64, ptr %23, align 8, !tbaa !10
  call void @llvm.memcpy.p0.p0.i64(ptr align 1 %108, ptr align 1 %109, i64 %110, i1 false)
  %111 = load ptr, ptr %27, align 8, !tbaa !22
  %112 = load i64, ptr %14, align 8, !tbaa !10
  %113 = load ptr, ptr %25, align 8, !tbaa !22
  %114 = load i64, ptr %15, align 8, !tbaa !10
  %115 = sub i64 0, %114
  %116 = getelementptr inbounds i8, ptr %113, i64 %115
  %117 = load i64, ptr %15, align 8, !tbaa !10
  %118 = load ptr, ptr %16, align 8, !tbaa !22
  %119 = load ptr, ptr %17, align 8, !tbaa !3
  %120 = load i32, ptr %18, align 4, !tbaa !8
  %121 = getelementptr inbounds nuw %"struct.duckdb_zstd::ZDICT_cover_params_t", ptr %9, i32 0, i32 7
  call void @llvm.memcpy.p0.p0.i64(ptr align 4 %32, ptr align 8 %121, i64 12, i1 false), !tbaa.struct !35
  %122 = call noundef i64 @_ZN11duckdb_zstd24ZDICT_finalizeDictionaryEPvmPKvmS2_PKmjNS_14ZDICT_params_tE(ptr noundef %111, i64 noundef %112, ptr noundef %116, i64 noundef %117, ptr noundef %118, ptr noundef %119, i32 noundef %120, ptr noundef byval(%"struct.duckdb_zstd::ZDICT_params_t") align 8 %32)
  store i64 %122, ptr %15, align 8, !tbaa !10
  %123 = load i64, ptr %15, align 8, !tbaa !10
  %124 = call noundef i32 @_ZN11duckdb_zstd13ZDICT_isErrorEm(i64 noundef %123)
  %125 = icmp ne i32 %124, 0
  br i1 %125, label %126, label %130

126:                                              ; preds = %107
  %127 = load ptr, ptr %26, align 8, !tbaa !22
  call void @free(ptr noundef %127) #12
  %128 = load ptr, ptr %27, align 8, !tbaa !22
  call void @free(ptr noundef %128) #12
  %129 = load i64, ptr %15, align 8, !tbaa !10
  call void @_ZN11duckdb_zstd24COVER_dictSelectionErrorEm(ptr dead_on_unwind writable sret(%"struct.duckdb_zstd::COVER_dictSelection") align 8 %0, i64 noundef %129)
  store i32 1, ptr %29, align 4
  br label %169

130:                                              ; preds = %107
  call void @llvm.memcpy.p0.p0.i64(ptr align 8 %33, ptr align 8 %9, i64 48, i1 false), !tbaa.struct !28
  %131 = load ptr, ptr %17, align 8, !tbaa !3
  %132 = load ptr, ptr %16, align 8, !tbaa !22
  %133 = load ptr, ptr %21, align 8, !tbaa !3
  %134 = load i64, ptr %19, align 8, !tbaa !10
  %135 = load i64, ptr %20, align 8, !tbaa !10
  %136 = load ptr, ptr %27, align 8, !tbaa !22
  %137 = load i64, ptr %15, align 8, !tbaa !10
  %138 = call noundef i64 @_ZN11duckdb_zstd30COVER_checkTotalCompressedSizeENS_20ZDICT_cover_params_tEPKmPKhPmmmPhm(ptr noundef byval(%"struct.duckdb_zstd::ZDICT_cover_params_t") align 8 %33, ptr noundef %131, ptr noundef %132, ptr noundef %133, i64 noundef %134, i64 noundef %135, ptr noundef %136, i64 noundef %137)
  store i64 %138, ptr %22, align 8, !tbaa !10
  %139 = load i64, ptr %22, align 8, !tbaa !10
  %140 = call noundef i32 @_ZN11duckdb_zstdL11ERR_isErrorEm(i64 noundef %139)
  %141 = icmp ne i32 %140, 0
  br i1 %141, label %142, label %146

142:                                              ; preds = %130
  %143 = load ptr, ptr %26, align 8, !tbaa !22
  call void @free(ptr noundef %143) #12
  %144 = load ptr, ptr %27, align 8, !tbaa !22
  call void @free(ptr noundef %144) #12
  %145 = load i64, ptr %22, align 8, !tbaa !10
  call void @_ZN11duckdb_zstd24COVER_dictSelectionErrorEm(ptr dead_on_unwind writable sret(%"struct.duckdb_zstd::COVER_dictSelection") align 8 %0, i64 noundef %145)
  store i32 1, ptr %29, align 4
  br label %169

146:                                              ; preds = %130
  %147 = load i64, ptr %22, align 8, !tbaa !10
  %148 = uitofp i64 %147 to double
  %149 = load i64, ptr %24, align 8, !tbaa !10
  %150 = uitofp i64 %149 to double
  %151 = load double, ptr %28, align 8, !tbaa !14
  %152 = fmul double %150, %151
  %153 = fcmp ole double %148, %152
  br i1 %153, label %154, label %159

154:                                              ; preds = %146
  %155 = load ptr, ptr %26, align 8, !tbaa !22
  call void @free(ptr noundef %155) #12
  %156 = load ptr, ptr %27, align 8, !tbaa !22
  %157 = load i64, ptr %15, align 8, !tbaa !10
  %158 = load i64, ptr %22, align 8, !tbaa !10
  call void @_ZN11duckdb_zstdL16setDictSelectionEPhmm(ptr dead_on_unwind writable sret(%"struct.duckdb_zstd::COVER_dictSelection") align 8 %0, ptr noundef %156, i64 noundef %157, i64 noundef %158)
  store i32 1, ptr %29, align 4
  br label %169

159:                                              ; preds = %146
  %160 = load i64, ptr %15, align 8, !tbaa !10
  %161 = mul i64 %160, 2
  store i64 %161, ptr %15, align 8, !tbaa !10
  br label %103, !llvm.loop !82

162:                                              ; preds = %103
  %163 = load i64, ptr %23, align 8, !tbaa !10
  store i64 %163, ptr %15, align 8, !tbaa !10
  %164 = load i64, ptr %24, align 8, !tbaa !10
  store i64 %164, ptr %22, align 8, !tbaa !10
  %165 = load ptr, ptr %27, align 8, !tbaa !22
  call void @free(ptr noundef %165) #12
  %166 = load ptr, ptr %26, align 8, !tbaa !22
  %167 = load i64, ptr %15, align 8, !tbaa !10
  %168 = load i64, ptr %22, align 8, !tbaa !10
  call void @_ZN11duckdb_zstdL16setDictSelectionEPhmm(ptr dead_on_unwind writable sret(%"struct.duckdb_zstd::COVER_dictSelection") align 8 %0, ptr noundef %166, i64 noundef %167, i64 noundef %168)
  store i32 1, ptr %29, align 4
  br label %169

169:                                              ; preds = %162, %154, %142, %126, %95, %87, %71, %51
  call void @llvm.lifetime.end.p0(i64 8, ptr %28) #12
  call void @llvm.lifetime.end.p0(i64 8, ptr %27) #12
  call void @llvm.lifetime.end.p0(i64 8, ptr %26) #12
  call void @llvm.lifetime.end.p0(i64 8, ptr %25) #12
  call void @llvm.lifetime.end.p0(i64 8, ptr %24) #12
  call void @llvm.lifetime.end.p0(i64 8, ptr %23) #12
  ret void
}